Microsoft (R) Macro Assembler Version 5.00                  12/5/18 01:37:46
                                                             Page     1-1


       1				;æ¯”è¾ƒç›¸é‚»çš„å…ƒç´ ã€‚å¦‚æœç¬¬ä¸€ä¸
					ªæ¯”ç¬¬äºŒä¸ªå¤§ï¼Œå°±äº¤æ¢ä»–ä»¬ä¸¤ä¸
					ªã€‚ 
       2				;å¯¹æ¯ä¸€å¯¹ç›¸é‚»å…ƒç´ ä½œåŒæ ·çš„å·
					¥ä½œï¼Œä»å¼€å§‹ç¬¬ä¸€å¯¹åˆ°ç»“å°¾çš„æœ
					€åä¸€å¯¹ã€‚è¿™æ­¥åšå®Œåï¼Œæœ€åçš
					„å…ƒç´ ä¼šæ˜¯æœ
       3				;é’ˆå¯¹æ‰€æœ‰çš„å…ƒç´ é‡å¤ä»¥ä¸Šçš„æ­
					¥éª¤ï¼Œé™¤äº†æœ€åä¸€ä¸ªã€‚ 
       4				;æŒç»­æ¯æ¬¡å¯¹è¶Šæ¥è¶Šå°‘çš„å…ƒç´ é‡
					å¤ä¸Šé¢çš„æ­¥éª¤ï¼Œç›´åˆ°æ²¡æœ‰ä»»ä½
					•ä¸€å¯¹æ•°å­—éœ€è¦æ¯”è¾ƒã€‚ 
       5				assume cs:code,ds:data 
       6 0000				data segment 
       7				;ORI 	db 13,0,13 dup(0) 
       8 0000  64 00			ORI 	db 100,0,100 dup(0) 
       9       0064[			
      10	   00			
      11			 ]	
      12				
      13				; 2 0 1 6 1 0 3 2 0 0 5 7 
      14				;ORIEND  equ $-ORI;13 
      15				;THEND db '$' 
      16 0066				data ends 
      17 0000				code segment 
      18 0000  B8 ---- R		start:	mov ax,data 
      19 0003  8E D8				mov ds,ax 
      20 0005  BA 0000 R			mov dx,offset ORI 
      21 0008  B4 0A				mov ah,0ah 
      22 000A  CD 21				int 21h 
      23 000C  B2 0A				mov dl,10 
      24 000E  B4 02				mov ah,02h 
      25 0010  CD 21				int 21h 
      26					;bl storage [i] 
      27					;bh storage [i+1] 
      28					;i from 0 to end-1 
      29 0012				EVE: 
      30 0012  33 C9				xor cx,cx 
      31					; mov cl,ORIEND 
      32					; sub cx,4;11 
      33				 
      34 0014  8D 36 0000 R			lea si,ORI 
      35 0018  46				inc si;real num 
      36 0019  8A 0C				mov cl,[si];cx=12 
      37 001B  49				dec cx 
      38				 
      39 001C  8B D1				mov dx,cx 
      40					;dec dx 
      41 001E  8D 3E 0000 R			lea di,ORI 
      42 0022  83 C7 02				add di,2 
      43 0025  33 DB			LP1:xor bx,bx 
      44 0027  8A 1D				mov bl,[di] 
      45 0029  8A 7D 01				mov bh,[di+1] 
      46 002C  3A DF				cmp bl,bh 
Microsoft (R) Macro Assembler Version 5.00                  12/5/18 01:37:46
                                                             Page     1-2


      47 002E  77 0C				ja EXCH 
      48 0030  4A				dec dx 
      49 0031  47			FAN:inc di 
      50 0032  E2 F1				loop LP1 
      51 0034  83 FA 00				cmp dx,0 
      52 0037  75 D9				jnz EVE 
      53 0039  EB 08 90				jmp DONE 
      54 003C  88 3D			EXCH:	mov [di],bh 
      55 003E  88 5D 01					mov [di+1],bl 
      56 0041  EB EE					jmp FAN 
      57 0043				DONE: 
      58 0043  8D 36 0000 R		    lea si,ORI 
      59 0047  46				inc si 
      60 0048  33 DB				xor bx,bx 
      61 004A  8A 1C				mov bl,[si] 
      62 004C  80 C3 02				add bl,2 
      63 004F  C6 00 24				mov byte ptr [si+bx],'$' 
      64 0052  8D 16 0000 R			lea dx,ORI 
      65 0056  83 C2 02				add dx,2 
      66 0059  B4 09				mov ah,9h 
      67 005B  CD 21				int 21h 
      68 005D  B4 4C				mov ah,4ch 
      69 005F  CD 21				int 21h 
      70				 
      71 0061				code ends 
      72				end start 
Microsoft (R) Macro Assembler Version 5.00                  12/5/18 01:37:46
                                                             Symbols-1


Segments and Groups:

                N a m e         	Length	 Align	Combine Class

CODE . . . . . . . . . . . . . .  	0061	PARA	NONE	
DATA . . . . . . . . . . . . . .  	0066	PARA	NONE	

Symbols:            

                N a m e         	Type	 Value	 Attr

DONE . . . . . . . . . . . . . .  	L NEAR	0043	CODE

EVE  . . . . . . . . . . . . . .  	L NEAR	0012	CODE
EXCH . . . . . . . . . . . . . .  	L NEAR	003C	CODE

FAN  . . . . . . . . . . . . . .  	L NEAR	0031	CODE

LP1  . . . . . . . . . . . . . .  	L NEAR	0025	CODE

ORI  . . . . . . . . . . . . . .  	L BYTE	0000	DATA

START  . . . . . . . . . . . . .  	L NEAR	0000	CODE

@FILENAME  . . . . . . . . . . .  	TEXT  test		


     68 Source  Lines
     68 Total   Lines
     11 Symbols

  50466 + 466062 Bytes symbol space free

      0 Warning Errors
      0 Severe  Errors
